; Function Attrs: mustprogress nounwind uwtable
define internal void @_ZN9grpc_core12_GLOBAL__N_118WeightedRoundRobin6Picker21SubchannelCallTrackerD0Ev(ptr noundef nonnull align 8 dereferenceable(32) %this) unnamed_addr #13 align 2 personality ptr @__gxx_personality_v0 {
entry:
  store ptr getelementptr inbounds ({ [6 x ptr] }, ptr @_ZTVN9grpc_core12_GLOBAL__N_118WeightedRoundRobin6Picker21SubchannelCallTrackerE, i64 0, i32 0, i64 2), ptr %this, align 8
  %child_tracker_.i = getelementptr inbounds i8, ptr %this, i64 24
  %0 = load ptr, ptr %child_tracker_.i, align 8
  %cmp.not.i.i = icmp eq ptr %0, null
  br i1 %cmp.not.i.i, label %_ZNSt10unique_ptrIN9grpc_core19LoadBalancingPolicy30SubchannelCallTrackerInterfaceESt14default_deleteIS2_EED2Ev.exit.i, label %_ZNKSt14default_deleteIN9grpc_core19LoadBalancingPolicy30SubchannelCallTrackerInterfaceEEclEPS2_.exit.i.i

_ZNKSt14default_deleteIN9grpc_core19LoadBalancingPolicy30SubchannelCallTrackerInterfaceEEclEPS2_.exit.i.i: ; preds = %entry
  %vtable.i.i.i = load ptr, ptr %0, align 8
  %vfn.i.i.i = getelementptr inbounds i8, ptr %vtable.i.i.i, i64 8
  %1 = load ptr, ptr %vfn.i.i.i, align 8
  tail call void %1(ptr noundef nonnull align 8 dereferenceable(8) %0) #30
  br label %_ZNSt10unique_ptrIN9grpc_core19LoadBalancingPolicy30SubchannelCallTrackerInterfaceESt14default_deleteIS2_EED2Ev.exit.i

_ZNSt10unique_ptrIN9grpc_core19LoadBalancingPolicy30SubchannelCallTrackerInterfaceESt14default_deleteIS2_EED2Ev.exit.i: ; preds = %_ZNKSt14default_deleteIN9grpc_core19LoadBalancingPolicy30SubchannelCallTrackerInterfaceEEclEPS2_.exit.i.i, %entry
  store ptr null, ptr %child_tracker_.i, align 8
  %weight_.i = getelementptr inbounds i8, ptr %this, i64 8
  %weight_.val.i = load ptr, ptr %weight_.i, align 8
  %cmp.not.i1.i = icmp eq ptr %weight_.val.i, null
  br i1 %cmp.not.i1.i, label %_ZN9grpc_core12_GLOBAL__N_118WeightedRoundRobin6Picker21SubchannelCallTrackerD2Ev.exit, label %if.then.i.i

if.then.i.i:                                      ; preds = %_ZNSt10unique_ptrIN9grpc_core19LoadBalancingPolicy30SubchannelCallTrackerInterfaceESt14default_deleteIS2_EED2Ev.exit.i
  %refs_.i.i.i = getelementptr inbounds i8, ptr %weight_.val.i, i64 8
  %2 = atomicrmw sub ptr %refs_.i.i.i, i64 1 acq_rel, align 8
  %cmp.i.i.i.i = icmp eq i64 %2, 1
  br i1 %cmp.i.i.i.i, label %if.then.i.i.i, label %_ZN9grpc_core12_GLOBAL__N_118WeightedRoundRobin6Picker21SubchannelCallTrackerD2Ev.exit

if.then.i.i.i:                                    ; preds = %if.then.i.i
  %vtable.i.i.i.i = load ptr, ptr %weight_.val.i, align 8
  %vfn.i.i.i.i = getelementptr inbounds i8, ptr %vtable.i.i.i.i, i64 8
  %3 = load ptr, ptr %vfn.i.i.i.i, align 8
  tail call void %3(ptr noundef nonnull align 8 dereferenceable(104) %weight_.val.i) #30
  br label %_ZN9grpc_core12_GLOBAL__N_118WeightedRoundRobin6Picker21SubchannelCallTrackerD2Ev.exit

_ZN9grpc_core12_GLOBAL__N_118WeightedRoundRobin6Picker21SubchannelCallTrackerD2Ev.exit: ; preds = %_ZNSt10unique_ptrIN9grpc_core19LoadBalancingPolicy30SubchannelCallTrackerInterfaceESt14default_deleteIS2_EED2Ev.exit.i, %if.then.i.i, %if.then.i.i.i
  tail call void @_ZdlPv(ptr noundef nonnull %this) #32
  ret void
}